target datalayout = "e-m:e-p270:32:32-p271:32:32-p272:64:64-i64:64-i128:128-f80:128-n8:16:32:64-S128"
target triple = "x86_64-unknown-linux-gnu"

%struct.hdr_histogram_bucket_config = type { i64, i64, i64, i64, i32, i32, i64, i32, i32, i32 }

; Function Attrs: nounwind uwtable
define internal i32 @buckets_needed_to_cover_value(i64 noundef %value, i32 noundef %sub_bucket_count, i32 noundef %unit_magnitude) #0 {
entry:
  %retval = alloca i32, align 4
  %value.addr = alloca i64, align 8
  %sub_bucket_count.addr = alloca i32, align 4
  %unit_magnitude.addr = alloca i32, align 4
  %smallest_untrackable_value = alloca i64, align 8
  %buckets_needed = alloca i32, align 4
  store i64 %value, ptr %value.addr, align 8
  store i32 %sub_bucket_count, ptr %sub_bucket_count.addr, align 4
  store i32 %unit_magnitude, ptr %unit_magnitude.addr, align 4
  %0 = load i32, ptr %sub_bucket_count.addr, align 4
  %conv = sext i32 %0 to i64
  %1 = load i32, ptr %unit_magnitude.addr, align 4
  %sh_prom = zext i32 %1 to i64
  %shl = shl i64 %conv, %sh_prom
  store i64 %shl, ptr %smallest_untrackable_value, align 8
  store i32 1, ptr %buckets_needed, align 4
  br label %while.cond

while.cond:                                       ; preds = %if.end, %entry
  %2 = load i64, ptr %smallest_untrackable_value, align 8
  %3 = load i64, ptr %value.addr, align 8
  %cmp = icmp sle i64 %2, %3
  br i1 %cmp, label %while.body, label %while.end

while.body:                                       ; preds = %while.cond
  %4 = load i64, ptr %smallest_untrackable_value, align 8
  %cmp2 = icmp sgt i64 %4, 4611686018427387903
  br i1 %cmp2, label %if.then, label %if.end

if.then:                                          ; preds = %while.body
  %5 = load i32, ptr %buckets_needed, align 4
  %add = add nsw i32 %5, 1
  store i32 %add, ptr %retval, align 4
  br label %return

if.end:                                           ; preds = %while.body
  %6 = load i64, ptr %smallest_untrackable_value, align 8
  %shl4 = shl i64 %6, 1
  store i64 %shl4, ptr %smallest_untrackable_value, align 8
  %7 = load i32, ptr %buckets_needed, align 4
  %inc = add nsw i32 %7, 1
  store i32 %inc, ptr %buckets_needed, align 4
  br label %while.cond

while.end:                                        ; preds = %while.cond
  %8 = load i32, ptr %buckets_needed, align 4
  store i32 %8, ptr %retval, align 4
  br label %return

return:                                           ; preds = %while.end, %if.then
  %9 = load i32, ptr %retval, align 4
  ret i32 %9
}

; Function Attrs: nounwind uwtable
define internal i64 @power(i64 noundef %base, i64 noundef %exp) #0 {
entry:
  %base.addr = alloca i64, align 8
  %exp.addr = alloca i64, align 8
  %result = alloca i64, align 8
  store i64 %base, ptr %base.addr, align 8
  store i64 %exp, ptr %exp.addr, align 8
  store i64 1, ptr %result, align 8
  br label %while.cond

while.cond:                                       ; preds = %while.body, %entry
  %0 = load i64, ptr %exp.addr, align 8
  %tobool = icmp ne i64 %0, 0
  br i1 %tobool, label %while.body, label %while.end

while.body:                                       ; preds = %while.cond
  %1 = load i64, ptr %base.addr, align 8
  %2 = load i64, ptr %result, align 8
  %mul = mul nsw i64 %2, %1
  store i64 %mul, ptr %result, align 8
  %3 = load i64, ptr %exp.addr, align 8
  %dec = add nsw i64 %3, -1
  store i64 %dec, ptr %exp.addr, align 8
  br label %while.cond

while.end:                                        ; preds = %while.cond
  %4 = load i64, ptr %result, align 8
  ret i64 %4
}

; Function Attrs: nounwind uwtable
define dso_local i32 @hdr_calculate_bucket_config(i64 noundef %lowest_discernible_value, i64 noundef %highest_trackable_value, i32 noundef %significant_figures, ptr noundef %cfg) #0 {
entry:
  %retval = alloca i32, align 4
  %lowest_discernible_value.addr = alloca i64, align 8
  %highest_trackable_value.addr = alloca i64, align 8
  %significant_figures.addr = alloca i32, align 4
  %cfg.addr = alloca ptr, align 8
  %sub_bucket_count_magnitude = alloca i32, align 4
  %largest_value_with_single_unit_resolution = alloca i64, align 8
  %unit_magnitude = alloca double, align 8
  store i64 %lowest_discernible_value, ptr %lowest_discernible_value.addr, align 8
  store i64 %highest_trackable_value, ptr %highest_trackable_value.addr, align 8
  store i32 %significant_figures, ptr %significant_figures.addr, align 4
  store ptr %cfg, ptr %cfg.addr, align 8
  %0 = load i64, ptr %lowest_discernible_value.addr, align 8
  %cmp = icmp slt i64 %0, 1
  br i1 %cmp, label %if.then, label %lor.lhs.false

lor.lhs.false:                                    ; preds = %entry
  %1 = load i32, ptr %significant_figures.addr, align 4
  %cmp1 = icmp slt i32 %1, 1
  br i1 %cmp1, label %if.then, label %lor.lhs.false2

lor.lhs.false2:                                   ; preds = %lor.lhs.false
  %2 = load i32, ptr %significant_figures.addr, align 4
  %cmp3 = icmp slt i32 5, %2
  br i1 %cmp3, label %if.then, label %lor.lhs.false4

lor.lhs.false4:                                   ; preds = %lor.lhs.false2
  %3 = load i64, ptr %lowest_discernible_value.addr, align 8
  %mul = mul nsw i64 %3, 2
  %4 = load i64, ptr %highest_trackable_value.addr, align 8
  %cmp5 = icmp sgt i64 %mul, %4
  br i1 %cmp5, label %if.then, label %if.end

if.then:                                          ; preds = %lor.lhs.false4, %lor.lhs.false2, %lor.lhs.false, %entry
  store i32 22, ptr %retval, align 4
  br label %return

if.end:                                           ; preds = %lor.lhs.false4
  %5 = load i64, ptr %lowest_discernible_value.addr, align 8
  %6 = load ptr, ptr %cfg.addr, align 8
  %lowest_discernible_value6 = getelementptr inbounds %struct.hdr_histogram_bucket_config, ptr %6, i32 0, i32 0
  store i64 %5, ptr %lowest_discernible_value6, align 8
  %7 = load i32, ptr %significant_figures.addr, align 4
  %conv = sext i32 %7 to i64
  %8 = load ptr, ptr %cfg.addr, align 8
  %significant_figures7 = getelementptr inbounds %struct.hdr_histogram_bucket_config, ptr %8, i32 0, i32 3
  store i64 %conv, ptr %significant_figures7, align 8
  %9 = load i64, ptr %highest_trackable_value.addr, align 8
  %10 = load ptr, ptr %cfg.addr, align 8
  %highest_trackable_value8 = getelementptr inbounds %struct.hdr_histogram_bucket_config, ptr %10, i32 0, i32 1
  store i64 %9, ptr %highest_trackable_value8, align 8
  %11 = load i32, ptr %significant_figures.addr, align 4
  %conv9 = sext i32 %11 to i64
  %call = call i64 @power(i64 noundef 10, i64 noundef %conv9)
  %mul10 = mul nsw i64 2, %call
  store i64 %mul10, ptr %largest_value_with_single_unit_resolution, align 8
  %12 = load i64, ptr %largest_value_with_single_unit_resolution, align 8
  %conv11 = sitofp i64 %12 to double
  %call12 = call double @log(double noundef %conv11) #5
  %call13 = call double @log(double noundef 2.000000e+00) #5
  %div = fdiv double %call12, %call13
  %13 = call double @llvm.ceil.f64(double %div)
  %conv14 = fptosi double %13 to i32
  store i32 %conv14, ptr %sub_bucket_count_magnitude, align 4
  %14 = load i32, ptr %sub_bucket_count_magnitude, align 4
  %cmp15 = icmp sgt i32 %14, 1
  br i1 %cmp15, label %cond.true, label %cond.false

cond.true:                                        ; preds = %if.end
  %15 = load i32, ptr %sub_bucket_count_magnitude, align 4
  br label %cond.end

cond.false:                                       ; preds = %if.end
  br label %cond.end

cond.end:                                         ; preds = %cond.false, %cond.true
  %cond = phi i32 [ %15, %cond.true ], [ 1, %cond.false ]
  %sub = sub nsw i32 %cond, 1
  %16 = load ptr, ptr %cfg.addr, align 8
  %sub_bucket_half_count_magnitude = getelementptr inbounds %struct.hdr_histogram_bucket_config, ptr %16, i32 0, i32 4
  store i32 %sub, ptr %sub_bucket_half_count_magnitude, align 8
  %17 = load i64, ptr %lowest_discernible_value.addr, align 8
  %conv17 = sitofp i64 %17 to double
  %call18 = call double @log(double noundef %conv17) #5
  %call19 = call double @log(double noundef 2.000000e+00) #5
  %div20 = fdiv double %call18, %call19
  store double %div20, ptr %unit_magnitude, align 8
  %18 = load double, ptr %unit_magnitude, align 8
  %cmp21 = fcmp olt double 0x41DFFFFFFFC00000, %18
  br i1 %cmp21, label %if.then23, label %if.end24

if.then23:                                        ; preds = %cond.end
  store i32 22, ptr %retval, align 4
  br label %return

if.end24:                                         ; preds = %cond.end
  %19 = load double, ptr %unit_magnitude, align 8
  %conv25 = fptosi double %19 to i32
  %conv26 = sext i32 %conv25 to i64
  %20 = load ptr, ptr %cfg.addr, align 8
  %unit_magnitude27 = getelementptr inbounds %struct.hdr_histogram_bucket_config, ptr %20, i32 0, i32 2
  store i64 %conv26, ptr %unit_magnitude27, align 8
  %21 = load ptr, ptr %cfg.addr, align 8
  %sub_bucket_half_count_magnitude28 = getelementptr inbounds %struct.hdr_histogram_bucket_config, ptr %21, i32 0, i32 4
  %22 = load i32, ptr %sub_bucket_half_count_magnitude28, align 8
  %add = add nsw i32 %22, 1
  %conv29 = sitofp i32 %add to double
  %call30 = call double @pow(double noundef 2.000000e+00, double noundef %conv29) #5
  %conv31 = fptosi double %call30 to i32
  %23 = load ptr, ptr %cfg.addr, align 8
  %sub_bucket_count = getelementptr inbounds %struct.hdr_histogram_bucket_config, ptr %23, i32 0, i32 7
  store i32 %conv31, ptr %sub_bucket_count, align 8
  %24 = load ptr, ptr %cfg.addr, align 8
  %sub_bucket_count32 = getelementptr inbounds %struct.hdr_histogram_bucket_config, ptr %24, i32 0, i32 7
  %25 = load i32, ptr %sub_bucket_count32, align 8
  %div33 = sdiv i32 %25, 2
  %26 = load ptr, ptr %cfg.addr, align 8
  %sub_bucket_half_count = getelementptr inbounds %struct.hdr_histogram_bucket_config, ptr %26, i32 0, i32 5
  store i32 %div33, ptr %sub_bucket_half_count, align 4
  %27 = load ptr, ptr %cfg.addr, align 8
  %sub_bucket_count34 = getelementptr inbounds %struct.hdr_histogram_bucket_config, ptr %27, i32 0, i32 7
  %28 = load i32, ptr %sub_bucket_count34, align 8
  %conv35 = sext i32 %28 to i64
  %sub36 = sub nsw i64 %conv35, 1
  %29 = load ptr, ptr %cfg.addr, align 8
  %unit_magnitude37 = getelementptr inbounds %struct.hdr_histogram_bucket_config, ptr %29, i32 0, i32 2
  %30 = load i64, ptr %unit_magnitude37, align 8
  %shl = shl i64 %sub36, %30
  %31 = load ptr, ptr %cfg.addr, align 8
  %sub_bucket_mask = getelementptr inbounds %struct.hdr_histogram_bucket_config, ptr %31, i32 0, i32 6
  store i64 %shl, ptr %sub_bucket_mask, align 8
  %32 = load ptr, ptr %cfg.addr, align 8
  %unit_magnitude38 = getelementptr inbounds %struct.hdr_histogram_bucket_config, ptr %32, i32 0, i32 2
  %33 = load i64, ptr %unit_magnitude38, align 8
  %34 = load ptr, ptr %cfg.addr, align 8
  %sub_bucket_half_count_magnitude39 = getelementptr inbounds %struct.hdr_histogram_bucket_config, ptr %34, i32 0, i32 4
  %35 = load i32, ptr %sub_bucket_half_count_magnitude39, align 8
  %conv40 = sext i32 %35 to i64
  %add41 = add nsw i64 %33, %conv40
  %cmp42 = icmp sgt i64 %add41, 61
  br i1 %cmp42, label %if.then44, label %if.end45

if.then44:                                        ; preds = %if.end24
  store i32 22, ptr %retval, align 4
  br label %return

if.end45:                                         ; preds = %if.end24
  %36 = load i64, ptr %highest_trackable_value.addr, align 8
  %37 = load ptr, ptr %cfg.addr, align 8
  %sub_bucket_count46 = getelementptr inbounds %struct.hdr_histogram_bucket_config, ptr %37, i32 0, i32 7
  %38 = load i32, ptr %sub_bucket_count46, align 8
  %39 = load ptr, ptr %cfg.addr, align 8
  %unit_magnitude47 = getelementptr inbounds %struct.hdr_histogram_bucket_config, ptr %39, i32 0, i32 2
  %40 = load i64, ptr %unit_magnitude47, align 8
  %conv48 = trunc i64 %40 to i32
  %call49 = call i32 @buckets_needed_to_cover_value(i64 noundef %36, i32 noundef %38, i32 noundef %conv48)
  %41 = load ptr, ptr %cfg.addr, align 8
  %bucket_count = getelementptr inbounds %struct.hdr_histogram_bucket_config, ptr %41, i32 0, i32 8
  store i32 %call49, ptr %bucket_count, align 4
  %42 = load ptr, ptr %cfg.addr, align 8
  %bucket_count50 = getelementptr inbounds %struct.hdr_histogram_bucket_config, ptr %42, i32 0, i32 8
  %43 = load i32, ptr %bucket_count50, align 4
  %add51 = add nsw i32 %43, 1
  %44 = load ptr, ptr %cfg.addr, align 8
  %sub_bucket_count52 = getelementptr inbounds %struct.hdr_histogram_bucket_config, ptr %44, i32 0, i32 7
  %45 = load i32, ptr %sub_bucket_count52, align 8
  %div53 = sdiv i32 %45, 2
  %mul54 = mul nsw i32 %add51, %div53
  %46 = load ptr, ptr %cfg.addr, align 8
  %counts_len = getelementptr inbounds %struct.hdr_histogram_bucket_config, ptr %46, i32 0, i32 9
  store i32 %mul54, ptr %counts_len, align 8
  store i32 0, ptr %retval, align 4
  br label %return

return:                                           ; preds = %if.end45, %if.then44, %if.then23, %if.then
  %47 = load i32, ptr %retval, align 4
  ret i32 %47
}