; Function Attrs: nofree nounwind uwtable
define dso_local noundef i32 @hdr_calculate_bucket_config(i64 noundef %lowest_discernible_value, i64 noundef %highest_trackable_value, i32 noundef %significant_figures, ptr nocapture noundef %cfg) local_unnamed_addr #2 {
entry:
  %cmp = icmp slt i64 %lowest_discernible_value, 1
  %0 = add i32 %significant_figures, -6
  %1 = icmp ult i32 %0, -5
  %or.cond1 = or i1 %cmp, %1
  %mul = shl nuw nsw i64 %lowest_discernible_value, 1
  %cmp5 = icmp sgt i64 %mul, %highest_trackable_value
  %or.cond = select i1 %or.cond1, i1 true, i1 %cmp5
  br i1 %or.cond, label %return, label %if.end

if.end:                                           ; preds = %entry
  store i64 %lowest_discernible_value, ptr %cfg, align 8
  %conv = zext nneg i32 %significant_figures to i64
  %significant_figures7 = getelementptr inbounds i8, ptr %cfg, i64 24
  store i64 %conv, ptr %significant_figures7, align 8
  %highest_trackable_value8 = getelementptr inbounds i8, ptr %cfg, i64 8
  store i64 %highest_trackable_value, ptr %highest_trackable_value8, align 8
  br label %while.body.i

while.body.i:                                     ; preds = %if.end, %while.body.i
  %result.05.i = phi i64 [ %mul.i, %while.body.i ], [ 1, %if.end ]
  %exp.addr.04.i = phi i64 [ %dec.i, %while.body.i ], [ %conv, %if.end ]
  %mul.i = mul nsw i64 %result.05.i, 10
  %dec.i = add nsw i64 %exp.addr.04.i, -1
  %tobool.not.i = icmp eq i64 %dec.i, 0
  br i1 %tobool.not.i, label %power.exit, label %while.body.i

power.exit:                                       ; preds = %while.body.i
  %mul10 = mul i64 %result.05.i, 20
  %conv11 = sitofp i64 %mul10 to double
  %call12 = tail call double @log(double noundef %conv11) #21
  %div = fdiv double %call12, 0x3FE62E42FEFA39EF
  %2 = tail call double @llvm.ceil.f64(double %div)
  %conv14 = fptosi double %2 to i32
  %cond = tail call i32 @llvm.smax.i32(i32 %conv14, i32 1)
  %sub = add nsw i32 %cond, -1
  %sub_bucket_half_count_magnitude = getelementptr inbounds i8, ptr %cfg, i64 32
  store i32 %sub, ptr %sub_bucket_half_count_magnitude, align 8
  %conv17 = sitofp i64 %lowest_discernible_value to double
  %call18 = tail call double @log(double noundef %conv17) #21
  %div20 = fdiv double %call18, 0x3FE62E42FEFA39EF
  %cmp21 = fcmp ogt double %div20, 0x41DFFFFFFFC00000
  br i1 %cmp21, label %return, label %if.end24

if.end24:                                         ; preds = %power.exit
  %conv25 = fptosi double %div20 to i32
  %conv26 = sext i32 %conv25 to i64
  %unit_magnitude27 = getelementptr inbounds i8, ptr %cfg, i64 16
  store i64 %conv26, ptr %unit_magnitude27, align 8
  %3 = load i32, ptr %sub_bucket_half_count_magnitude, align 8
  %add = add nsw i32 %3, 1
  %ldexp = tail call double @ldexp(double 1.000000e+00, i32 %add) #21
  %conv31 = fptosi double %ldexp to i32
  %sub_bucket_count = getelementptr inbounds i8, ptr %cfg, i64 48
  store i32 %conv31, ptr %sub_bucket_count, align 8
  %div33 = sdiv i32 %conv31, 2
  %sub_bucket_half_count = getelementptr inbounds i8, ptr %cfg, i64 36
  store i32 %div33, ptr %sub_bucket_half_count, align 4
  %conv35 = sext i32 %conv31 to i64
  %sub36 = add nsw i64 %conv35, -1
  %4 = load i64, ptr %unit_magnitude27, align 8
  %shl = shl i64 %sub36, %4
  %sub_bucket_mask = getelementptr inbounds i8, ptr %cfg, i64 40
  store i64 %shl, ptr %sub_bucket_mask, align 8
  %5 = load i32, ptr %sub_bucket_half_count_magnitude, align 8
  %conv40 = sext i32 %5 to i64
  %add41 = add nsw i64 %4, %conv40
  %cmp42 = icmp sgt i64 %add41, 61
  br i1 %cmp42, label %return, label %if.end45

if.end45:                                         ; preds = %if.end24
  %sh_prom.i = and i64 %4, 4294967295
  %shl.i = shl i64 %conv35, %sh_prom.i
  %cmp.not6.i = icmp sgt i64 %shl.i, %highest_trackable_value
  br i1 %cmp.not6.i, label %buckets_needed_to_cover_value.exit, label %while.body.i31

while.body.i31:                                   ; preds = %if.end45, %if.end.i
  %buckets_needed.08.i = phi i32 [ %inc.i, %if.end.i ], [ 1, %if.end45 ]
  %smallest_untrackable_value.07.i = phi i64 [ %shl4.i, %if.end.i ], [ %shl.i, %if.end45 ]
  %cmp2.i = icmp sgt i64 %smallest_untrackable_value.07.i, 4611686018427387903
  br i1 %cmp2.i, label %if.then.i, label %if.end.i

if.then.i:                                        ; preds = %while.body.i31
  %add.i = add nuw nsw i32 %buckets_needed.08.i, 1
  br label %buckets_needed_to_cover_value.exit

if.end.i:                                         ; preds = %while.body.i31
  %shl4.i = shl i64 %smallest_untrackable_value.07.i, 1
  %inc.i = add nuw nsw i32 %buckets_needed.08.i, 1
  %cmp.not.i = icmp sgt i64 %shl4.i, %highest_trackable_value
  br i1 %cmp.not.i, label %buckets_needed_to_cover_value.exit, label %while.body.i31

buckets_needed_to_cover_value.exit:               ; preds = %if.end.i, %if.end45, %if.then.i
  %retval.0.i = phi i32 [ %add.i, %if.then.i ], [ 1, %if.end45 ], [ %inc.i, %if.end.i ]
  %bucket_count = getelementptr inbounds i8, ptr %cfg, i64 52
  store i32 %retval.0.i, ptr %bucket_count, align 4
  %add51 = add nsw i32 %retval.0.i, 1
  %mul54 = mul nsw i32 %add51, %div33
  %counts_len = getelementptr inbounds i8, ptr %cfg, i64 56
  store i32 %mul54, ptr %counts_len, align 8
  br label %return

return:                                           ; preds = %if.end24, %power.exit, %entry, %buckets_needed_to_cover_value.exit
  %retval.0 = phi i32 [ 0, %buckets_needed_to_cover_value.exit ], [ 22, %entry ], [ 22, %power.exit ], [ 22, %if.end24 ]
  ret i32 %retval.0
}